Certificate:
    Data:
        Version: 3 (0x2)
        Serial Number: 4097 (0x1001)
        Signature Algorithm: sha256WithRSAEncryption
        Issuer: C=SG, ST=Germany, O=devcon, OU=Security, CN=ldap.dev.devcon.com/emailAddress=dev@devcons.com
        Validity
            Not Before: Jun 27 16:59:58 2023 GMT
            Not After : Dec 16 16:59:58 2074 GMT
        Subject: C=SG, ST=Germany, O=devcon, OU=Security, CN=ldap.dev.devcon.com/emailAddress=dev@devcons.com
        Subject Public Key Info:
            Public Key Algorithm: rsaEncryption
                RSA Public-Key: (4096 bit)
                Modulus:
                    00:e8:65:29:44:84:2d:74:fc:4d:eb:94:3e:2f:c3:
                    36:67:81:a0:08:44:ff:77:10:12:4d:3e:6c:a6:1e:
                    80:ee:2f:20:86:47:79:9a:24:9e:d1:b2:d0:db:17:
                    f6:82:49:62:dc:ac:b3:bc:78:2b:13:10:ce:47:96:
                    3a:91:0d:f7:85:49:39:f1:a3:d0:37:ba:fa:ff:69:
                    13:6e:6f:b6:62:1b:14:86:8d:c0:aa:9b:4c:8e:8e:
                    a2:b4:3a:43:69:e1:ee:fd:2d:4f:8a:29:47:90:4c:
                    82:0e:9d:58:43:97:91:22:1c:0c:3a:3b:c3:08:1c:
                    22:60:01:1e:51:32:5d:a6:9d:64:d7:03:d8:02:47:
                    d4:4b:da:61:4a:55:93:86:6c:7c:ce:c3:1f:1b:67:
                    75:a8:9f:a7:e7:ab:89:ad:5a:a9:63:d1:49:78:d7:
                    9c:58:9d:6b:29:2a:09:33:50:d9:2d:79:9f:6e:bc:
                    56:a3:41:76:c0:ae:dd:f6:a4:8a:25:48:32:bb:a0:
                    d8:97:02:b2:47:88:0f:61:08:d2:cd:01:50:4a:52:
                    49:a4:61:0f:e4:84:22:bc:a1:9a:4b:ee:4d:1f:af:
                    0e:cb:52:ad:c5:85:05:1f:86:72:3b:8e:da:2a:65:
                    58:dc:77:08:7f:43:80:a2:06:fa:11:c3:6f:37:58:
                    50:27:ab:4a:c1:43:b8:a4:ed:ed:ee:87:8f:b1:cc:
                    ee:32:45:a3:ae:97:19:77:53:65:3c:64:a8:61:61:
                    1c:24:d7:9f:e7:9f:51:8c:08:5c:38:18:14:f7:93:
                    13:aa:0a:47:41:4b:57:af:99:d6:2a:e3:77:20:42:
                    96:cb:a1:fa:16:3a:80:f5:d5:39:97:a0:34:42:5c:
                    62:42:34:97:12:29:04:6f:04:91:bb:0d:62:70:3b:
                    e4:29:1a:24:ad:16:30:0b:76:38:b3:ef:84:bc:60:
                    ae:32:3c:8f:4d:60:2b:47:e3:69:fb:7f:2b:5b:c0:
                    5a:6c:7c:cc:05:4d:c3:25:8c:a7:b7:8c:5c:ad:d0:
                    c3:e6:8b:f6:a9:d7:70:06:66:5b:7c:ab:2d:46:0b:
                    34:e0:d4:0c:9f:14:7b:fb:43:ad:f4:9f:13:2c:6e:
                    7d:17:16:cb:92:a4:5f:f1:56:2e:9e:5f:ac:a6:6e:
                    f7:d6:83:8d:a3:ca:a7:b0:ee:6c:26:b0:ff:c4:28:
                    e8:8a:ca:33:e7:b3:ad:d8:80:aa:b8:74:6c:d2:91:
                    90:60:62:2d:4b:94:3e:bd:ae:2a:53:ae:13:9c:43:
                    a4:c1:55:69:63:0f:aa:b5:f2:76:cb:b8:be:68:9a:
                    d3:9b:56:e8:c3:9a:dc:df:fd:60:83:7e:e2:ed:bf:
                    d5:4f:45
                Exponent: 65537 (0x10001)
        X509v3 extensions:
            X509v3 Subject Key Identifier: 
                36:07:BD:B5:C0:9A:AD:E8:62:E7:70:2F:E0:48:9F:7B:D4:C1:F7:6E
            X509v3 Authority Key Identifier: 
                keyid:36:07:BD:B5:C0:9A:AD:E8:62:E7:70:2F:E0:48:9F:7B:D4:C1:F7:6E

            X509v3 Basic Constraints: critical
                CA:TRUE
    Signature Algorithm: sha256WithRSAEncryption
         71:e2:b7:ab:78:8c:6e:03:ee:d6:2a:f4:8d:65:b5:8f:f8:47:
         67:3e:c2:eb:bd:61:c9:a9:81:cd:1c:b0:a8:b6:ec:19:99:12:
         3b:69:54:bc:b9:0f:4a:6d:fd:c4:3d:d0:ee:f7:36:73:4a:9d:
         b7:b2:57:7f:aa:ef:4d:90:bd:67:06:41:b7:9d:3c:62:99:49:
         09:01:60:ee:fa:6a:0c:53:61:77:39:e8:e3:67:7a:50:91:8b:
         d4:cd:7e:52:76:0d:f7:50:96:7b:a4:0b:c2:a6:38:da:4c:76:
         e9:73:6e:58:e4:c7:da:23:08:b5:05:aa:8a:d0:24:78:2e:32:
         7c:58:92:ad:69:12:c2:24:76:05:17:ec:cb:51:31:3c:ce:87:
         6e:b7:2a:ea:04:d9:09:09:d4:d2:2d:05:0d:5d:4b:0c:48:41:
         19:e0:f9:e9:5f:7a:2f:3d:19:76:54:c8:eb:a0:ec:e0:a1:be:
         3d:cb:b9:b0:5c:96:6c:b4:ea:ac:89:28:fa:40:e5:74:af:43:
         3b:29:91:4b:4f:31:74:80:a5:ab:d9:fc:40:be:e5:59:ea:2e:
         2c:df:1f:75:e7:92:c2:7a:6a:ad:21:e7:ca:d1:e0:76:6f:df:
         9c:65:ad:1a:63:01:36:36:e2:6f:d3:84:88:eb:79:f0:e8:7c:
         01:8a:62:cc:00:15:db:ce:cf:7a:8d:fa:38:27:47:9c:bd:45:
         aa:9d:e9:c9:d4:53:f1:8f:0f:84:e6:6e:e4:14:65:03:84:2b:
         e9:12:06:63:0b:9f:1f:eb:6b:86:98:2c:ef:63:15:c4:62:8b:
         ce:62:01:47:e4:0a:49:13:13:44:59:f1:7d:a7:02:33:cb:14:
         71:cb:44:6e:85:f6:cc:79:41:5f:04:5a:aa:ce:51:e5:d9:cd:
         b6:43:d6:a8:91:80:c1:02:b6:9a:af:87:5e:11:ed:8c:a6:44:
         2b:43:31:95:e0:ed:33:65:12:02:0e:af:f0:b6:cb:38:e8:03:
         34:0c:a1:1d:0d:c0:17:8b:e2:3a:f5:8b:ea:dc:f5:2e:b7:c0:
         80:80:9e:8e:d7:96:80:8d:1b:2d:08:21:94:b3:b2:1d:22:a7:
         f6:34:48:7c:32:32:70:89:f8:c2:97:b8:17:02:68:1e:f5:63:
         b5:30:88:15:54:c1:e5:1e:6b:f0:2b:94:70:22:37:92:b8:7a:
         14:82:d1:09:b6:32:60:11:fe:16:60:73:d5:99:87:0a:d5:ec:
         37:1b:2f:a0:2a:af:a7:71:a7:92:91:4c:9f:7e:d3:22:80:89:
         dc:21:03:9c:77:0f:9e:49:cc:51:43:38:b3:a6:cc:91:ff:87:
         6b:ad:f2:41:b7:b1:6f:b0
-----BEGIN CERTIFICATE-----
MIIF1TCCA72gAwIBAgICEAEwDQYJKoZIhvcNAQELBQAwgYExCzAJBgNVBAYTAlNH
MRAwDgYDVQQIDAdHZXJtYW55MQ8wDQYDVQQKDAZkZXZjb24xETAPBgNVBAsMCFNl
Y3VyaXR5MRwwGgYDVQQDDBNsZGFwLmRldi5kZXZjb24uY29tMR4wHAYJKoZIhvcN
AQkBFg9kZXZAZGV2Y29ucy5jb20wIBcNMjMwNjI3MTY1OTU4WhgPMjA3NDEyMTYx
NjU5NThaMIGBMQswCQYDVQQGEwJTRzEQMA4GA1UECAwHR2VybWFueTEPMA0GA1UE
CgwGZGV2Y29uMREwDwYDVQQLDAhTZWN1cml0eTEcMBoGA1UEAwwTbGRhcC5kZXYu
ZGV2Y29uLmNvbTEeMBwGCSqGSIb3DQEJARYPZGV2QGRldmNvbnMuY29tMIICIjAN
BgkqhkiG9w0BAQEFAAOCAg8AMIICCgKCAgEA6GUpRIQtdPxN65Q+L8M2Z4GgCET/
dxASTT5sph6A7i8ghkd5miSe0bLQ2xf2gkli3KyzvHgrExDOR5Y6kQ33hUk58aPQ
N7r6/2kTbm+2YhsUho3AqptMjo6itDpDaeHu/S1PiilHkEyCDp1YQ5eRIhwMOjvD
CBwiYAEeUTJdpp1k1wPYAkfUS9phSlWThmx8zsMfG2d1qJ+n56uJrVqpY9FJeNec
WJ1rKSoJM1DZLXmfbrxWo0F2wK7d9qSKJUgyu6DYlwKyR4gPYQjSzQFQSlJJpGEP
5IQivKGaS+5NH68Oy1KtxYUFH4ZyO47aKmVY3HcIf0OAogb6EcNvN1hQJ6tKwUO4
pO3t7oePsczuMkWjrpcZd1NlPGSoYWEcJNef559RjAhcOBgU95MTqgpHQUtXr5nW
KuN3IEKWy6H6FjqA9dU5l6A0QlxiQjSXEikEbwSRuw1icDvkKRokrRYwC3Y4s++E
vGCuMjyPTWArR+Np+38rW8BabHzMBU3DJYynt4xcrdDD5ov2qddwBmZbfKstRgs0
4NQMnxR7+0Ot9J8TLG59FxbLkqRf8VYunl+spm731oONo8qnsO5sJrD/xCjoisoz
57Ot2ICquHRs0pGQYGItS5Q+va4qU64TnEOkwVVpYw+qtfJ2y7i+aJrTm1bow5rc
3/1gg37i7b/VT0UCAwEAAaNTMFEwHQYDVR0OBBYEFDYHvbXAmq3oYudwL+BIn3vU
wfduMB8GA1UdIwQYMBaAFDYHvbXAmq3oYudwL+BIn3vUwfduMA8GA1UdEwEB/wQF
MAMBAf8wDQYJKoZIhvcNAQELBQADggIBAHHit6t4jG4D7tYq9I1ltY/4R2c+wuu9
Ycmpgc0csKi27BmZEjtpVLy5D0pt/cQ90O73NnNKnbeyV3+q702QvWcGQbedPGKZ
SQkBYO76agxTYXc56ONnelCRi9TNflJ2DfdQlnukC8KmONpMdulzbljkx9ojCLUF
qorQJHguMnxYkq1pEsIkdgUX7MtRMTzOh263KuoE2QkJ1NItBQ1dSwxIQRng+elf
ei89GXZUyOug7OChvj3LubBclmy06qyJKPpA5XSvQzspkUtPMXSApavZ/EC+5Vnq
LizfH3XnksJ6aq0h58rR4HZv35xlrRpjATY24m/ThIjrefDofAGKYswAFdvOz3qN
+jgnR5y9Raqd6cnUU/GPD4TmbuQUZQOEK+kSBmMLnx/ra4aYLO9jFcRii85iAUfk
CkkTE0RZ8X2nAjPLFHHLRG6F9sx5QV8EWqrOUeXZzbZD1qiRgMECtpqvh14R7Yym
RCtDMZXg7TNlEgIOr/C2yzjoAzQMoR0NwBeL4jr1i+rc9S63wICAno7XloCNGy0I
IZSzsh0ip/Y0SHwyMnCJ+MKXuBcCaB71Y7UwiBVUweUea/ArlHAiN5K4ehSC0Qm2
MmAR/hZgc9WZhwrV7DcbL6Aqr6dxp5KRTJ9+0yKAidwhA5x3D55JzFFDOLOmzJH/
h2ut8kG3sW+w
-----END CERTIFICATE-----
