Certificate:
    Data:
        Version: 3 (0x2)
        Serial Number: 4099 (0x1003)
        Signature Algorithm: sha256WithRSAEncryption
        Issuer: C=SG, ST=Germany, O=devcon, OU=Security, CN=ldap.dev.devcon.com/emailAddress=dev@devcons.com
        Validity
            Not Before: Jun 27 17:00:09 2023 GMT
            Not After : Jun 26 17:00:09 2024 GMT
        Subject: C=SG, ST=Germany, L=Germany, O=devcon, OU=Security, CN=slave.ldap.dev.devcon.com/emailAddress=dev@devcons.com
        Subject Public Key Info:
            Public Key Algorithm: rsaEncryption
                RSA Public-Key: (4096 bit)
                Modulus:
                    00:bc:a4:20:71:fd:2c:ac:06:fc:d0:7f:d0:2c:e2:
                    a2:75:ec:99:c6:dd:0d:71:36:f4:3e:85:11:38:26:
                    2f:c1:09:12:d8:38:e8:30:9c:6a:6a:e6:5b:0b:11:
                    86:73:fb:fc:98:c8:f2:b1:82:06:cc:9d:da:dd:a1:
                    8c:e2:2b:fd:a1:fb:7a:84:b8:57:6a:aa:95:c0:d8:
                    c3:d8:c0:28:71:d7:3f:d1:74:52:22:78:f9:34:09:
                    10:9d:c4:af:4d:1f:d2:b5:59:51:50:c5:2a:0c:2e:
                    8d:83:89:3b:53:80:1a:9d:fc:40:86:9e:e6:76:0b:
                    6a:a6:e0:11:7f:ed:ec:f3:21:14:52:69:59:36:48:
                    ae:62:9b:77:2c:84:42:cf:a9:a0:9c:e4:12:60:23:
                    2e:60:db:be:11:aa:18:7f:fb:51:be:22:c8:3b:ca:
                    ea:f9:11:8f:2b:76:d9:a4:e8:11:8a:03:2d:c3:f8:
                    41:03:5c:50:98:5d:58:e4:49:aa:ed:8c:1b:77:b3:
                    0b:e1:d6:ff:af:78:fb:09:5e:00:86:c4:d7:9c:67:
                    5f:66:ff:ca:3e:f1:92:33:55:7d:30:ab:b2:7d:1a:
                    d6:e3:b3:d8:b3:dd:f1:8f:eb:86:ef:c2:65:1d:94:
                    db:30:4f:ac:d2:d6:99:40:2d:a6:3c:a5:b5:cd:d3:
                    63:ec:c2:3f:5e:3e:30:db:ec:95:9d:12:4f:b8:b6:
                    35:eb:ec:5a:eb:79:3e:dc:6e:0c:d1:0a:67:0d:8f:
                    a5:fd:de:51:0d:a8:09:d3:34:bf:c0:6e:9b:1b:25:
                    9f:d9:2c:68:17:ba:83:e1:ca:63:26:e5:6e:55:e7:
                    d5:49:d7:60:d9:46:f9:f1:3a:a1:44:af:aa:fd:83:
                    e5:bf:be:12:3c:45:93:81:2b:a0:98:c6:bf:0f:b0:
                    5e:76:51:f2:a6:4b:9c:1e:c9:bc:21:3a:28:e2:a0:
                    4c:07:44:84:54:c8:f8:38:80:88:05:b6:ab:16:24:
                    ea:c1:0f:d0:c2:c4:d6:ac:10:23:1a:74:0a:4a:05:
                    0c:e5:71:15:3b:6e:50:e4:d6:28:82:f9:41:25:c0:
                    a3:b7:c5:8c:21:3c:5b:7d:5e:1c:b0:b0:e9:cd:91:
                    47:7b:29:28:57:34:56:a0:2c:e9:96:1f:aa:55:43:
                    70:86:4d:51:fa:2e:bc:44:42:e3:4a:84:26:f6:8d:
                    ee:55:75:4a:e3:3f:d1:b8:d6:42:f4:36:2c:b5:6f:
                    ba:61:25:d3:43:1f:57:18:a3:0a:c5:2e:0d:0d:d5:
                    2d:c5:93:ea:63:ea:9f:31:a3:1f:59:c4:99:4b:27:
                    00:ae:de:32:a0:b2:da:03:a3:3f:22:f3:2f:e4:5c:
                    4c:14:65
                Exponent: 65537 (0x10001)
        X509v3 extensions:
            X509v3 Basic Constraints: 
                CA:FALSE
            Netscape Comment: 
                OpenSSL Generated Certificate
            X509v3 Subject Key Identifier: 
                0C:00:4F:10:FA:80:95:FD:CB:E4:A8:81:BD:A5:D9:E6:1F:4E:21:E6
            X509v3 Authority Key Identifier: 
                keyid:36:07:BD:B5:C0:9A:AD:E8:62:E7:70:2F:E0:48:9F:7B:D4:C1:F7:6E

    Signature Algorithm: sha256WithRSAEncryption
         98:17:0e:ce:16:22:cd:0b:0b:33:4a:2a:99:b6:60:70:31:27:
         e1:c1:04:4b:c3:54:aa:7d:0b:93:9c:5a:2f:9e:be:5c:7a:c2:
         d0:b6:b9:37:f8:90:b7:d5:04:40:bd:07:2a:72:65:a3:40:a5:
         37:2f:d3:99:18:80:8c:bf:a5:7f:81:03:b7:30:97:ec:19:67:
         0f:69:18:a6:f6:88:0e:fe:22:ef:85:c3:c3:22:7e:db:d8:05:
         f9:30:c8:71:81:a2:46:3c:c8:27:04:3e:c7:74:c9:c3:d5:fb:
         57:b9:a8:dd:7f:44:33:33:32:f7:ca:ca:48:f5:d4:5c:55:0c:
         64:73:90:7c:bc:f3:4f:4e:b3:17:38:be:e8:cb:61:d1:ec:ce:
         35:a5:b5:f5:5d:d5:91:86:e6:36:b2:3c:9c:35:99:d0:03:4d:
         40:c8:82:c5:21:18:2f:6f:35:7b:41:f7:76:82:26:8f:5e:58:
         88:ba:71:b6:1a:33:99:d4:17:ec:19:3c:63:20:35:1f:bd:fb:
         c1:2a:ae:de:7a:89:53:8d:8d:cf:97:bc:12:ac:4b:81:25:35:
         0d:81:12:03:07:c3:41:e2:89:3c:d9:79:0a:a3:0f:93:c6:7f:
         60:42:5b:01:4a:f7:e5:b6:f7:95:73:90:c8:52:c9:3d:14:63:
         63:d7:11:51:93:00:4b:3b:0c:78:b3:b6:d9:17:be:f7:18:ba:
         7e:c0:d6:dd:c6:71:7b:16:8f:13:c6:41:21:a5:cb:ea:5f:a2:
         50:b6:05:5a:ed:bd:a7:f0:34:a9:e6:78:fb:26:14:ae:82:fd:
         c8:05:85:88:a7:16:6e:a1:ef:f4:19:54:0c:e0:0e:bf:82:ac:
         31:34:3b:7e:b0:70:e1:e5:24:b9:8b:e3:51:a1:6a:37:e1:08:
         1d:3f:33:d4:4d:7e:82:58:ea:05:c7:0a:f5:2c:2e:f4:b8:fc:
         1f:ca:25:f2:39:12:79:a4:b4:cd:7e:93:f4:0f:29:27:dc:fa:
         60:88:a1:59:5f:21:6a:4c:00:da:7f:6c:1c:18:f4:8e:1b:2c:
         f1:eb:7b:f9:3c:59:16:2f:c8:86:60:7d:60:0c:1d:7c:9b:59:
         49:fd:c2:f4:fb:fe:f3:33:34:2b:85:66:1d:1a:de:14:39:a9:
         9c:86:2e:1b:8c:82:fd:b1:89:d1:8e:ca:c0:08:2d:0f:f3:e1:
         f0:49:65:64:01:2d:b1:fa:4d:b9:38:9e:ff:86:87:bf:8e:2f:
         2b:bc:1a:66:8c:07:77:b7:90:a7:32:4e:2e:9c:e5:9b:2b:66:
         65:5b:fa:46:16:2a:7b:f6:28:70:e4:47:b0:1d:50:e9:57:04:
         58:54:7f:af:28:79:1b:0b
-----BEGIN CERTIFICATE-----
MIIGEzCCA/ugAwIBAgICEAMwDQYJKoZIhvcNAQELBQAwgYExCzAJBgNVBAYTAlNH
MRAwDgYDVQQIDAdHZXJtYW55MQ8wDQYDVQQKDAZkZXZjb24xETAPBgNVBAsMCFNl
Y3VyaXR5MRwwGgYDVQQDDBNsZGFwLmRldi5kZXZjb24uY29tMR4wHAYJKoZIhvcN
AQkBFg9kZXZAZGV2Y29ucy5jb20wHhcNMjMwNjI3MTcwMDA5WhcNMjQwNjI2MTcw
MDA5WjCBmTELMAkGA1UEBhMCU0cxEDAOBgNVBAgMB0dlcm1hbnkxEDAOBgNVBAcM
B0dlcm1hbnkxDzANBgNVBAoMBmRldmNvbjERMA8GA1UECwwIU2VjdXJpdHkxIjAg
BgNVBAMMGXNsYXZlLmxkYXAuZGV2LmRldmNvbi5jb20xHjAcBgkqhkiG9w0BCQEW
D2RldkBkZXZjb25zLmNvbTCCAiIwDQYJKoZIhvcNAQEBBQADggIPADCCAgoCggIB
ALykIHH9LKwG/NB/0CzionXsmcbdDXE29D6FETgmL8EJEtg46DCcamrmWwsRhnP7
/JjI8rGCBsyd2t2hjOIr/aH7eoS4V2qqlcDYw9jAKHHXP9F0UiJ4+TQJEJ3Er00f
0rVZUVDFKgwujYOJO1OAGp38QIae5nYLaqbgEX/t7PMhFFJpWTZIrmKbdyyEQs+p
oJzkEmAjLmDbvhGqGH/7Ub4iyDvK6vkRjyt22aToEYoDLcP4QQNcUJhdWORJqu2M
G3ezC+HW/694+wleAIbE15xnX2b/yj7xkjNVfTCrsn0a1uOz2LPd8Y/rhu/CZR2U
2zBPrNLWmUAtpjyltc3TY+zCP14+MNvslZ0ST7i2NevsWut5PtxuDNEKZw2Ppf3e
UQ2oCdM0v8Bumxsln9ksaBe6g+HKYyblblXn1UnXYNlG+fE6oUSvqv2D5b++EjxF
k4EroJjGvw+wXnZR8qZLnB7JvCE6KOKgTAdEhFTI+DiAiAW2qxYk6sEP0MLE1qwQ
Ixp0CkoFDOVxFTtuUOTWKIL5QSXAo7fFjCE8W31eHLCw6c2RR3spKFc0VqAs6ZYf
qlVDcIZNUfouvERC40qEJvaN7lV1SuM/0bjWQvQ2LLVvumEl00MfVxijCsUuDQ3V
LcWT6mPqnzGjH1nEmUsnAK7eMqCy2gOjPyLzL+RcTBRlAgMBAAGjezB5MAkGA1Ud
EwQCMAAwLAYJYIZIAYb4QgENBB8WHU9wZW5TU0wgR2VuZXJhdGVkIENlcnRpZmlj
YXRlMB0GA1UdDgQWBBQMAE8Q+oCV/cvkqIG9pdnmH04h5jAfBgNVHSMEGDAWgBQ2
B721wJqt6GLncC/gSJ971MH3bjANBgkqhkiG9w0BAQsFAAOCAgEAmBcOzhYizQsL
M0oqmbZgcDEn4cEES8NUqn0Lk5xaL56+XHrC0La5N/iQt9UEQL0HKnJlo0ClNy/T
mRiAjL+lf4EDtzCX7BlnD2kYpvaIDv4i74XDwyJ+29gF+TDIcYGiRjzIJwQ+x3TJ
w9X7V7mo3X9EMzMy98rKSPXUXFUMZHOQfLzzT06zFzi+6Mth0ezONaW19V3VkYbm
NrI8nDWZ0ANNQMiCxSEYL281e0H3doImj15YiLpxthozmdQX7Bk8YyA1H737wSqu
3nqJU42Nz5e8EqxLgSU1DYESAwfDQeKJPNl5CqMPk8Z/YEJbAUr35bb3lXOQyFLJ
PRRjY9cRUZMASzsMeLO22Re+9xi6fsDW3cZxexaPE8ZBIaXL6l+iULYFWu29p/A0
qeZ4+yYUroL9yAWFiKcWbqHv9BlUDOAOv4KsMTQ7frBw4eUkuYvjUaFqN+EIHT8z
1E1+gljqBccK9Swu9Lj8H8ol8jkSeaS0zX6T9A8pJ9z6YIihWV8hakwA2n9sHBj0
jhss8et7+TxZFi/IhmB9YAwdfJtZSf3C9Pv+8zM0K4VmHRreFDmpnIYuG4yC/bGJ
0Y7KwAgtD/Ph8EllZAEtsfpNuTie/4aHv44vK7waZowHd7eQpzJOLpzlmytmZVv6
RhYqe/YocORHsB1Q6VcEWFR/ryh5Gws=
-----END CERTIFICATE-----
